; ModuleID = 'source-C-CXX/51/4546.c'
source_filename = "source-C-CXX/51/4546.c"
target datalayout = "e-m:e-p270:32:32-p271:32:32-p272:64:64-i64:64-f80:128-n8:16:32:64-S128"
target triple = "x86_64-pc-linux-gnu"

%struct._IO_FILE = type { i32, i8*, i8*, i8*, i8*, i8*, i8*, i8*, i8*, i8*, i8*, i8*, %struct._IO_marker*, %struct._IO_FILE*, i32, i32, i64, i16, i8, [1 x i8], i8*, i64, %struct._IO_codecvt*, %struct._IO_wide_data*, %struct._IO_FILE*, i8*, i64, i32, [20 x i8] }
%struct._IO_marker = type opaque
%struct._IO_codecvt = type opaque
%struct._IO_wide_data = type opaque

@.str = private unnamed_addr constant [5 x i8] c"%d%d\00", align 1
@.str.1 = private unnamed_addr constant [3 x i8] c"%d\00", align 1
@.str.2 = private unnamed_addr constant [4 x i8] c"%d \00", align 1
@stdin = external local_unnamed_addr global %struct._IO_FILE*, align 8

; Function Attrs: nofree nounwind sspstrong uwtable
define dso_local i32 @main() local_unnamed_addr #0 {
  %1 = alloca i32, align 4
  %2 = alloca i32, align 4
  %3 = alloca [100 x i32], align 16
  %4 = bitcast i32* %1 to i8*
  call void @llvm.lifetime.start.p0i8(i64 4, i8* nonnull %4) #4
  %5 = bitcast i32* %2 to i8*
  call void @llvm.lifetime.start.p0i8(i64 4, i8* nonnull %5) #4
  %6 = bitcast [100 x i32]* %3 to i8*
  call void @llvm.lifetime.start.p0i8(i64 400, i8* nonnull %6) #4
  %7 = call i32 (i8*, ...) @__isoc99_scanf(i8* getelementptr inbounds ([5 x i8], [5 x i8]* @.str, i64 0, i64 0), i32* nonnull %1, i32* nonnull %2)
  %8 = load %struct._IO_FILE*, %struct._IO_FILE** @stdin, align 8, !tbaa !5
  %9 = call i32 @getc(%struct._IO_FILE* %8) #4
  %10 = getelementptr inbounds [100 x i32], [100 x i32]* %3, i64 0, i64 0
  %11 = load i32, i32* %1, align 4, !tbaa !9
  %12 = icmp sgt i32 %11, 0
  br i1 %12, label %18, label %13

13:                                               ; preds = %0
  %14 = sext i32 %11 to i64
  %15 = load i32, i32* %2, align 4, !tbaa !9
  %16 = add nsw i64 %14, -1
  %17 = getelementptr inbounds [100 x i32], [100 x i32]* %3, i64 0, i64 %16
  br label %32

18:                                               ; preds = %0, %18
  %19 = phi i32* [ %21, %18 ], [ %10, %0 ]
  %20 = call i32 (i8*, ...) @__isoc99_scanf(i8* getelementptr inbounds ([3 x i8], [3 x i8]* @.str.1, i64 0, i64 0), i32* nonnull %19)
  %21 = getelementptr inbounds i32, i32* %19, i64 1
  %22 = load i32, i32* %1, align 4, !tbaa !9
  %23 = sext i32 %22 to i64
  %24 = getelementptr inbounds [100 x i32], [100 x i32]* %3, i64 0, i64 %23
  %25 = icmp ult i32* %21, %24
  br i1 %25, label %18, label %26, !llvm.loop !11

26:                                               ; preds = %18
  %27 = sext i32 %22 to i64
  %28 = load i32, i32* %2, align 4, !tbaa !9
  %29 = add nsw i64 %27, -1
  %30 = getelementptr inbounds [100 x i32], [100 x i32]* %3, i64 0, i64 %29
  %31 = icmp sgt i32 %22, 1
  br i1 %31, label %36, label %32

32:                                               ; preds = %13, %26
  %33 = phi i32* [ %17, %13 ], [ %30, %26 ]
  %34 = phi i32 [ %15, %13 ], [ %28, %26 ]
  %35 = phi i64 [ %14, %13 ], [ %27, %26 ]
  br label %47

36:                                               ; preds = %26, %44
  %37 = phi i32 [ %46, %44 ], [ %28, %26 ]
  %38 = load i32, i32* %30, align 4, !tbaa !9
  br label %39

39:                                               ; preds = %39, %36
  %40 = phi i32* [ %30, %36 ], [ %41, %39 ]
  %41 = getelementptr inbounds i32, i32* %40, i64 -1
  %42 = load i32, i32* %41, align 4, !tbaa !9
  store i32 %42, i32* %40, align 4, !tbaa !9
  %43 = icmp ugt i32* %41, %10
  br i1 %43, label %39, label %44, !llvm.loop !13

44:                                               ; preds = %39
  store i32 %38, i32* %10, align 16, !tbaa !9
  %45 = icmp sgt i32 %37, 1
  %46 = add nsw i32 %37, -1
  br i1 %45, label %36, label %52

47:                                               ; preds = %32, %47
  %48 = phi i32 [ %51, %47 ], [ %34, %32 ]
  %49 = load i32, i32* %33, align 4, !tbaa !9
  store i32 %49, i32* %10, align 16, !tbaa !9
  %50 = icmp sgt i32 %48, 1
  %51 = add nsw i32 %48, -1
  br i1 %50, label %47, label %52

52:                                               ; preds = %47, %44
  %53 = phi i64 [ %27, %44 ], [ %35, %47 ]
  %54 = phi i32 [ %38, %44 ], [ %49, %47 ]
  %55 = getelementptr inbounds [100 x i32], [100 x i32]* %3, i64 0, i64 %53
  %56 = getelementptr inbounds i32, i32* %55, i64 -1
  %57 = icmp ult i32* %10, %56
  br i1 %57, label %58, label %79

58:                                               ; preds = %52
  %59 = call i32 (i8*, ...) @printf(i8* nonnull dereferenceable(1) getelementptr inbounds ([4 x i8], [4 x i8]* @.str.2, i64 0, i64 0), i32 %54)
  %60 = getelementptr inbounds [100 x i32], [100 x i32]* %3, i64 0, i64 1
  %61 = load i32, i32* %1, align 4, !tbaa !9
  %62 = sext i32 %61 to i64
  %63 = getelementptr inbounds [100 x i32], [100 x i32]* %3, i64 0, i64 %62
  %64 = getelementptr inbounds i32, i32* %63, i64 -1
  %65 = icmp ult i32* %60, %64
  br i1 %65, label %66, label %76, !llvm.loop !14

66:                                               ; preds = %58, %66
  %67 = phi i32* [ %70, %66 ], [ %60, %58 ]
  %68 = load i32, i32* %67, align 4, !tbaa !9
  %69 = call i32 (i8*, ...) @printf(i8* nonnull dereferenceable(1) getelementptr inbounds ([4 x i8], [4 x i8]* @.str.2, i64 0, i64 0), i32 %68)
  %70 = getelementptr inbounds i32, i32* %67, i64 1
  %71 = load i32, i32* %1, align 4, !tbaa !9
  %72 = sext i32 %71 to i64
  %73 = getelementptr inbounds [100 x i32], [100 x i32]* %3, i64 0, i64 %72
  %74 = getelementptr inbounds i32, i32* %73, i64 -1
  %75 = icmp ult i32* %70, %74
  br i1 %75, label %66, label %76, !llvm.loop !14

76:                                               ; preds = %66, %58
  %77 = phi i32* [ %60, %58 ], [ %70, %66 ]
  %78 = load i32, i32* %77, align 4, !tbaa !9
  br label %79

79:                                               ; preds = %76, %52
  %80 = phi i32 [ %54, %52 ], [ %78, %76 ]
  %81 = call i32 (i8*, ...) @printf(i8* nonnull dereferenceable(1) getelementptr inbounds ([3 x i8], [3 x i8]* @.str.1, i64 0, i64 0), i32 %80)
  call void @llvm.lifetime.end.p0i8(i64 400, i8* nonnull %6) #4
  call void @llvm.lifetime.end.p0i8(i64 4, i8* nonnull %5) #4
  call void @llvm.lifetime.end.p0i8(i64 4, i8* nonnull %4) #4
  ret i32 0
}

; Function Attrs: argmemonly mustprogress nofree nosync nounwind willreturn
declare void @llvm.lifetime.start.p0i8(i64 immarg, i8* nocapture) #1

; Function Attrs: nofree nounwind
declare noundef i32 @__isoc99_scanf(i8* nocapture noundef readonly, ...) local_unnamed_addr #2

; Function Attrs: nofree nosync nounwind sspstrong uwtable
define dso_local void @move(i32* %0, i32 %1, i32 %2) local_unnamed_addr #3 {
  %4 = sext i32 %1 to i64
  %5 = add nsw i64 %4, -1
  %6 = getelementptr inbounds i32, i32* %0, i64 %5
  %7 = icmp sgt i32 %1, 1
  br i1 %7, label %8, label %19

8:                                                ; preds = %3, %16
  %9 = phi i32 [ %18, %16 ], [ %2, %3 ]
  %10 = load i32, i32* %6, align 4, !tbaa !9
  br label %11

11:                                               ; preds = %8, %11
  %12 = phi i32* [ %6, %8 ], [ %13, %11 ]
  %13 = getelementptr inbounds i32, i32* %12, i64 -1
  %14 = load i32, i32* %13, align 4, !tbaa !9
  store i32 %14, i32* %12, align 4, !tbaa !9
  %15 = icmp ugt i32* %13, %0
  br i1 %15, label %11, label %16, !llvm.loop !13

16:                                               ; preds = %11
  store i32 %10, i32* %0, align 4, !tbaa !9
  %17 = icmp sgt i32 %9, 1
  %18 = add nsw i32 %9, -1
  br i1 %17, label %8, label %24

19:                                               ; preds = %3, %19
  %20 = phi i32 [ %23, %19 ], [ %2, %3 ]
  %21 = load i32, i32* %6, align 4, !tbaa !9
  store i32 %21, i32* %0, align 4, !tbaa !9
  %22 = icmp sgt i32 %20, 1
  %23 = add nsw i32 %20, -1
  br i1 %22, label %19, label %24

24:                                               ; preds = %19, %16
  ret void
}

; Function Attrs: nofree nounwind
declare noundef i32 @printf(i8* nocapture noundef readonly, ...) local_unnamed_addr #2

; Function Attrs: argmemonly mustprogress nofree nosync nounwind willreturn
declare void @llvm.lifetime.end.p0i8(i64 immarg, i8* nocapture) #1

; Function Attrs: nofree nounwind
declare noundef i32 @getc(%struct._IO_FILE* nocapture noundef) local_unnamed_addr #2


!llvm.module.flags = !{!0, !1, !2, !3}
!llvm.ident = !{!4}

!0 = !{i32 1, !"wchar_size", i32 4}
!1 = !{i32 7, !"PIC Level", i32 2}
!2 = !{i32 7, !"PIE Level", i32 2}
!3 = !{i32 7, !"uwtable", i32 1}
!4 = !{!"clang version 13.0.0"}
!5 = !{!6, !6, i64 0}
!6 = !{!"any pointer", !7, i64 0}
!7 = !{!"omnipotent char", !8, i64 0}
!8 = !{!"Simple C/C++ TBAA"}
!9 = !{!10, !10, i64 0}
!10 = !{!"int", !7, i64 0}
!11 = distinct !{!11, !12}
!12 = !{!"llvm.loop.mustprogress"}
!13 = distinct !{!13, !12}
!14 = distinct !{!14, !12}
